target datalayout = "e-m:e-p270:32:32-p271:32:32-p272:64:64-i64:64-i128:128-f80:128-n8:16:32:64-S128"
target triple = "x86_64-pc-linux-gnu"

%"struct.cv::aruco::RefineParameters" = type <{ float, float, i8, [3 x i8] }>

; Function Attrs: mustprogress nounwind uwtable
define void @_ZN2cv5aruco16RefineParametersC2Effb(ptr noundef nonnull align 4 dereferenceable(9) %0, float noundef %1, float noundef %2, i1 noundef zeroext %3) unnamed_addr #6 align 2 {
  %5 = alloca ptr, align 8
  %6 = alloca float, align 4
  %7 = alloca float, align 4
  %8 = alloca i8, align 1
  store ptr %0, ptr %5, align 8
  store float %1, ptr %6, align 4
  store float %2, ptr %7, align 4
  %9 = zext i1 %3 to i8
  store i8 %9, ptr %8, align 1
  %10 = load ptr, ptr %5, align 8
  %11 = getelementptr inbounds %"struct.cv::aruco::RefineParameters", ptr %10, i32 0, i32 0
  %12 = load float, ptr %6, align 4
  store float %12, ptr %11, align 4
  %13 = getelementptr inbounds %"struct.cv::aruco::RefineParameters", ptr %10, i32 0, i32 1
  %14 = load float, ptr %7, align 4
  store float %14, ptr %13, align 4
  %15 = getelementptr inbounds %"struct.cv::aruco::RefineParameters", ptr %10, i32 0, i32 2
  %16 = load i8, ptr %8, align 1
  %17 = trunc i8 %16 to i1
  %18 = zext i1 %17 to i8
  store i8 %18, ptr %15, align 4
  ret void
}