; Function Attrs: mustprogress nofree norecurse nosync nounwind willreturn memory(argmem: write) uwtable
define void @_ZN2cv5aruco16RefineParametersC2Effb(ptr nocapture noundef nonnull writeonly align 4 dereferenceable(9) %0, float noundef %1, float noundef %2, i1 noundef zeroext %3) unnamed_addr #5 align 2 {
  %5 = zext i1 %3 to i8
  store float %1, ptr %0, align 4
  %6 = getelementptr inbounds i8, ptr %0, i64 4
  store float %2, ptr %6, align 4
  %7 = getelementptr inbounds i8, ptr %0, i64 8
  store i8 %5, ptr %7, align 4
  ret void
}